; Function Attrs: mustprogress nofree norecurse nosync nounwind memory(readwrite, inaccessiblemem: none) uwtable
define void @_ZN5ImGui33TableUpdateColumnsWeightFromWidthEP10ImGuiTable(ptr noundef readonly captures(none) %0) local_unnamed_addr #8 {
  %2 = getelementptr inbounds nuw i8, ptr %0, i64 108
  %3 = load i32, ptr %2, align 4, !tbaa !209
  %4 = icmp sgt i32 %3, 0
  br i1 %4, label %.lr.ph, label %._crit_edge

.lr.ph:                                           ; preds = %1
  %5 = getelementptr inbounds nuw i8, ptr %0, i64 24
  %6 = load ptr, ptr %5, align 8, !tbaa !278
  %wide.trip.count = zext nneg i32 %3 to i64
  br label %9

.lr.ph32:                                         ; preds = %24
  %7 = getelementptr inbounds nuw i8, ptr %0, i64 24
  %8 = load ptr, ptr %7, align 8, !tbaa !278
  %wide.trip.count37 = zext nneg i32 %3 to i64
  br label %25

9:                                                ; preds = %.lr.ph, %24
  %indvars.iv = phi i64 [ 0, %.lr.ph ], [ %indvars.iv.next, %24 ]
  %.028 = phi float [ 0.000000e+00, %.lr.ph ], [ %.1, %24 ]
  %.02227 = phi float [ 0.000000e+00, %.lr.ph ], [ %.123, %24 ]
  %10 = getelementptr inbounds nuw %struct.ImGuiTableColumn, ptr %6, i64 %indvars.iv
  %11 = getelementptr inbounds nuw i8, ptr %10, i64 102
  %12 = load i8, ptr %11, align 2, !tbaa !314, !range !153, !noundef !154
  %13 = trunc nuw i8 %12 to i1
  br i1 %13, label %14, label %24

14:                                               ; preds = %9
  %15 = load i32, ptr %10, align 4, !tbaa !339
  %16 = and i32 %15, 8
  %.not25 = icmp eq i32 %16, 0
  br i1 %.not25, label %24, label %17

17:                                               ; preds = %14
  %18 = getelementptr inbounds nuw i8, ptr %10, i64 28
  %19 = load float, ptr %18, align 4, !tbaa !341
  %20 = fadd float %.028, %19
  %21 = getelementptr inbounds nuw i8, ptr %10, i64 16
  %22 = load float, ptr %21, align 4, !tbaa !319
  %23 = fadd float %.02227, %22
  br label %24

24:                                               ; preds = %9, %14, %17
  %.123 = phi float [ %23, %17 ], [ %.02227, %14 ], [ %.02227, %9 ]
  %.1 = phi float [ %20, %17 ], [ %.028, %14 ], [ %.028, %9 ]
  %indvars.iv.next = add nuw nsw i64 %indvars.iv, 1
  %exitcond.not = icmp eq i64 %indvars.iv.next, %wide.trip.count
  br i1 %exitcond.not, label %.lr.ph32, label %9, !llvm.loop !365

._crit_edge:                                      ; preds = %39, %1
  ret void

25:                                               ; preds = %.lr.ph32, %39
  %indvars.iv34 = phi i64 [ 0, %.lr.ph32 ], [ %indvars.iv.next35, %39 ]
  %26 = getelementptr inbounds nuw %struct.ImGuiTableColumn, ptr %8, i64 %indvars.iv34
  %27 = getelementptr inbounds nuw i8, ptr %26, i64 102
  %28 = load i8, ptr %27, align 2, !tbaa !314, !range !153, !noundef !154
  %29 = trunc nuw i8 %28 to i1
  br i1 %29, label %30, label %39

30:                                               ; preds = %25
  %31 = load i32, ptr %26, align 4, !tbaa !339
  %32 = and i32 %31, 8
  %.not = icmp eq i32 %32, 0
  br i1 %.not, label %39, label %33

33:                                               ; preds = %30
  %34 = getelementptr inbounds nuw i8, ptr %26, i64 16
  %35 = load float, ptr %34, align 4, !tbaa !319
  %36 = fdiv float %35, %.123
  %37 = fmul float %.1, %36
  %38 = getelementptr inbounds nuw i8, ptr %26, i64 28
  store float %37, ptr %38, align 4, !tbaa !341
  br label %39

39:                                               ; preds = %25, %30, %33
  %indvars.iv.next35 = add nuw nsw i64 %indvars.iv34, 1
  %exitcond38.not = icmp eq i64 %indvars.iv.next35, %wide.trip.count37
  br i1 %exitcond38.not, label %._crit_edge, label %25, !llvm.loop !366
}